target datalayout = "e-m:e-p270:32:32-p271:32:32-p272:64:64-i64:64-i128:128-f80:128-n8:16:32:64-S128"
target triple = "x86_64-pc-linux-gnu"

%class.LogTagSet = type { ptr, i64, [5 x i32], [4 x i8], %class.LogOutputList, %class.LogDecorators, ptr }
%class.LogOutputList = type <{ [6 x ptr], i32, [4 x i8] }>
%class.LogDecorators = type { i32 }

@.str.61 = private unnamed_addr constant [80 x i8] c"%s: req_size=%lu%s req_page_size=%lu%s base=0x%016lx size=%lu%s page_size=%lu%s\00", align 1
@_ZN16LogTagSetMappingILN6LogTag4typeE108ELS1_0ELS1_0ELS1_0ELS1_0ELS1_0EE7_tagsetE = linkonce_odr hidden global %class.LogTagSet zeroinitializer, comdat, align 8
@.str.269 = private unnamed_addr constant [2 x i8] c"G\00", align 1
@.str.270 = private unnamed_addr constant [2 x i8] c"M\00", align 1
@.str.271 = private unnamed_addr constant [2 x i8] c"K\00", align 1
@.str.272 = private unnamed_addr constant [2 x i8] c"B\00", align 1

; Function Attrs: mustprogress nounwind uwtable
define linkonce_odr hidden noundef zeroext i1 @_ZNK13LogOutputList8is_levelEN8LogLevel4typeE(ptr noundef nonnull align 8 dereferenceable(52) %0, i32 noundef %1) #1 comdat align 2 {
  %3 = alloca ptr, align 8
  %4 = alloca i32, align 4
  store ptr %0, ptr %3, align 8
  store i32 %1, ptr %4, align 4
  %5 = load ptr, ptr %3, align 8
  %6 = getelementptr inbounds %class.LogOutputList, ptr %5, i32 0, i32 0
  %7 = load i32, ptr %4, align 4
  %8 = zext i32 %7 to i64
  %9 = getelementptr inbounds [6 x ptr], ptr %6, i64 0, i64 %8
  %10 = load volatile ptr, ptr %9, align 8
  %11 = icmp ne ptr %10, null
  ret i1 %11
}

; Function Attrs: mustprogress nounwind uwtable
define linkonce_odr hidden noundef zeroext i1 @_ZNK9LogTagSet8is_levelEN8LogLevel4typeE(ptr noundef nonnull align 8 dereferenceable(112) %0, i32 noundef %1) #1 comdat align 2 {
  %3 = alloca ptr, align 8
  %4 = alloca i32, align 4
  store ptr %0, ptr %3, align 8
  store i32 %1, ptr %4, align 4
  %5 = load ptr, ptr %3, align 8
  %6 = getelementptr inbounds %class.LogTagSet, ptr %5, i32 0, i32 4
  %7 = load i32, ptr %4, align 4
  %8 = call noundef zeroext i1 @_ZNK13LogOutputList8is_levelEN8LogLevel4typeE(ptr noundef nonnull align 8 dereferenceable(52) %6, i32 noundef %7)
  ret i1 %8
}

; Function Attrs: mustprogress nounwind uwtable
define linkonce_odr hidden noundef nonnull align 8 dereferenceable(112) ptr @_ZN16LogTagSetMappingILN6LogTag4typeE108ELS1_0ELS1_0ELS1_0ELS1_0ELS1_0EE6tagsetEv() #1 comdat align 2 {
  ret ptr @_ZN16LogTagSetMappingILN6LogTag4typeE108ELS1_0ELS1_0ELS1_0ELS1_0ELS1_0EE7_tagsetE
}

; Function Attrs: mustprogress nounwind uwtable
define linkonce_odr hidden noundef i64 @_Z3p2iPVKv(ptr noundef %0) #1 comdat {
  %2 = alloca ptr, align 8
  store ptr %0, ptr %2, align 8
  %3 = load ptr, ptr %2, align 8
  %4 = ptrtoint ptr %3 to i64
  ret i64 %4
}

; Function Attrs: mustprogress nounwind uwtable
define linkonce_odr hidden noundef ptr @_Z24exact_unit_for_byte_sizem(i64 noundef %0) #1 comdat {
  %2 = alloca ptr, align 8
  %3 = alloca i64, align 8
  store i64 %0, ptr %3, align 8
  %4 = load i64, ptr %3, align 8
  %5 = icmp uge i64 %4, 1073741824
  br i1 %5, label %6, label %11

6:                                                ; preds = %1
  %7 = load i64, ptr %3, align 8
  %8 = urem i64 %7, 1073741824
  %9 = icmp eq i64 %8, 0
  br i1 %9, label %10, label %11

10:                                               ; preds = %6
  store ptr @.str.269, ptr %2, align 8
  br label %28

11:                                               ; preds = %6, %1
  %12 = load i64, ptr %3, align 8
  %13 = icmp uge i64 %12, 1048576
  br i1 %13, label %14, label %19

14:                                               ; preds = %11
  %15 = load i64, ptr %3, align 8
  %16 = urem i64 %15, 1048576
  %17 = icmp eq i64 %16, 0
  br i1 %17, label %18, label %19

18:                                               ; preds = %14
  store ptr @.str.270, ptr %2, align 8
  br label %28

19:                                               ; preds = %14, %11
  %20 = load i64, ptr %3, align 8
  %21 = icmp uge i64 %20, 1024
  br i1 %21, label %22, label %27

22:                                               ; preds = %19
  %23 = load i64, ptr %3, align 8
  %24 = urem i64 %23, 1024
  %25 = icmp eq i64 %24, 0
  br i1 %25, label %26, label %27

26:                                               ; preds = %22
  store ptr @.str.271, ptr %2, align 8
  br label %28

27:                                               ; preds = %22, %19
  store ptr @.str.272, ptr %2, align 8
  br label %28

28:                                               ; preds = %27, %26, %18, %10
  %29 = load ptr, ptr %2, align 8
  ret ptr %29
}

; Function Attrs: mustprogress nounwind uwtable
define linkonce_odr hidden noundef i64 @_Z23byte_size_in_exact_unitm(i64 noundef %0) #1 comdat {
  %2 = alloca i64, align 8
  %3 = alloca i64, align 8
  store i64 %0, ptr %3, align 8
  %4 = load i64, ptr %3, align 8
  %5 = icmp uge i64 %4, 1073741824
  br i1 %5, label %6, label %13

6:                                                ; preds = %1
  %7 = load i64, ptr %3, align 8
  %8 = urem i64 %7, 1073741824
  %9 = icmp eq i64 %8, 0
  br i1 %9, label %10, label %13

10:                                               ; preds = %6
  %11 = load i64, ptr %3, align 8
  %12 = udiv i64 %11, 1073741824
  store i64 %12, ptr %2, align 8
  br label %35

13:                                               ; preds = %6, %1
  %14 = load i64, ptr %3, align 8
  %15 = icmp uge i64 %14, 1048576
  br i1 %15, label %16, label %23

16:                                               ; preds = %13
  %17 = load i64, ptr %3, align 8
  %18 = urem i64 %17, 1048576
  %19 = icmp eq i64 %18, 0
  br i1 %19, label %20, label %23

20:                                               ; preds = %16
  %21 = load i64, ptr %3, align 8
  %22 = udiv i64 %21, 1048576
  store i64 %22, ptr %2, align 8
  br label %35

23:                                               ; preds = %16, %13
  %24 = load i64, ptr %3, align 8
  %25 = icmp uge i64 %24, 1024
  br i1 %25, label %26, label %33

26:                                               ; preds = %23
  %27 = load i64, ptr %3, align 8
  %28 = urem i64 %27, 1024
  %29 = icmp eq i64 %28, 0
  br i1 %29, label %30, label %33

30:                                               ; preds = %26
  %31 = load i64, ptr %3, align 8
  %32 = udiv i64 %31, 1024
  store i64 %32, ptr %2, align 8
  br label %35

33:                                               ; preds = %26, %23
  %34 = load i64, ptr %3, align 8
  store i64 %34, ptr %2, align 8
  br label %35

35:                                               ; preds = %33, %30, %20, %10
  %36 = load i64, ptr %2, align 8
  ret i64 %36
}

; Function Attrs: mustprogress nounwind uwtable
define linkonce_odr hidden noundef zeroext i1 @_ZN7LogImplILN6LogTag4typeE108ELS1_0ELS1_0ELS1_0ELS1_0ELS1_0EE8is_levelEN8LogLevel4typeE(i32 noundef %0) #1 comdat align 2 {
  %2 = alloca i32, align 4
  store i32 %0, ptr %2, align 4
  %3 = call noundef nonnull align 8 dereferenceable(112) ptr @_ZN16LogTagSetMappingILN6LogTag4typeE108ELS1_0ELS1_0ELS1_0ELS1_0ELS1_0EE6tagsetEv()
  %4 = load i32, ptr %2, align 4
  %5 = call noundef zeroext i1 @_ZNK9LogTagSet8is_levelEN8LogLevel4typeE(ptr noundef nonnull align 8 dereferenceable(112) %3, i32 noundef %4)
  ret i1 %5
}

; Function Attrs: mustprogress nounwind uwtable
define hidden void @_ZN2os35trace_page_sizes_for_requested_sizeEPKcmmS1_mm(ptr noundef %0, i64 noundef %1, i64 noundef %2, ptr noundef %3, i64 noundef %4, i64 noundef %5) #1 align 2 {
  %7 = alloca ptr, align 8
  %8 = alloca i64, align 8
  %9 = alloca i64, align 8
  %10 = alloca ptr, align 8
  %11 = alloca i64, align 8
  %12 = alloca i64, align 8
  store ptr %0, ptr %7, align 8
  store i64 %1, ptr %8, align 8
  store i64 %2, ptr %9, align 8
  store ptr %3, ptr %10, align 8
  store i64 %4, ptr %11, align 8
  store i64 %5, ptr %12, align 8
  %13 = call noundef zeroext i1 @_ZN7LogImplILN6LogTag4typeE108ELS1_0ELS1_0ELS1_0ELS1_0ELS1_0EE8is_levelEN8LogLevel4typeE(i32 noundef 3)
  br i1 %13, label %15, label %14

14:                                               ; preds = %6
  br label %35

15:                                               ; preds = %6
  %16 = load ptr, ptr %7, align 8
  %17 = load i64, ptr %8, align 8
  %18 = call noundef i64 @_Z23byte_size_in_exact_unitm(i64 noundef %17)
  %19 = load i64, ptr %8, align 8
  %20 = call noundef ptr @_Z24exact_unit_for_byte_sizem(i64 noundef %19)
  %21 = load i64, ptr %9, align 8
  %22 = call noundef i64 @_Z23byte_size_in_exact_unitm(i64 noundef %21)
  %23 = load i64, ptr %9, align 8
  %24 = call noundef ptr @_Z24exact_unit_for_byte_sizem(i64 noundef %23)
  %25 = load ptr, ptr %10, align 8
  %26 = call noundef i64 @_Z3p2iPVKv(ptr noundef %25)
  %27 = load i64, ptr %11, align 8
  %28 = call noundef i64 @_Z23byte_size_in_exact_unitm(i64 noundef %27)
  %29 = load i64, ptr %11, align 8
  %30 = call noundef ptr @_Z24exact_unit_for_byte_sizem(i64 noundef %29)
  %31 = load i64, ptr %12, align 8
  %32 = call noundef i64 @_Z23byte_size_in_exact_unitm(i64 noundef %31)
  %33 = load i64, ptr %12, align 8
  %34 = call noundef ptr @_Z24exact_unit_for_byte_sizem(i64 noundef %33)
  call void (ptr, ...) @_ZN7LogImplILN6LogTag4typeE108ELS1_0ELS1_0ELS1_0ELS1_0ELS1_0EE5writeILN8LogLevel4typeE3EEEvPKcz(ptr noundef @.str.61, ptr noundef %16, i64 noundef %18, ptr noundef %20, i64 noundef %22, ptr noundef %24, i64 noundef %26, i64 noundef %28, ptr noundef %30, i64 noundef %32, ptr noundef %34)
  br label %35

35:                                               ; preds = %15, %14
  ret void
}