; Function Attrs: mustprogress nounwind uwtable
define hidden void @_ZN2os35trace_page_sizes_for_requested_sizeEPKcmmS1_mm(ptr noundef %0, i64 noundef %1, i64 noundef %2, ptr noundef %3, i64 noundef %4, i64 noundef %5) local_unnamed_addr #3 align 2 {
  %7 = load volatile ptr, ptr getelementptr inbounds (i8, ptr @_ZN16LogTagSetMappingILN6LogTag4typeE108ELS1_0ELS1_0ELS1_0ELS1_0ELS1_0EE7_tagsetE, i64 64), align 8
  %.not = icmp eq ptr %7, null
  br i1 %.not, label %78, label %8

8:                                                ; preds = %6
  %9 = icmp ugt i64 %1, 1073741823
  %10 = and i64 %1, 1073741823
  %11 = icmp eq i64 %10, 0
  %or.cond.i = and i1 %9, %11
  br i1 %or.cond.i, label %_Z23byte_size_in_exact_unitm.exit, label %12

12:                                               ; preds = %8
  %13 = icmp ugt i64 %1, 1048575
  %14 = and i64 %1, 1048575
  %15 = icmp eq i64 %14, 0
  %or.cond14.i = and i1 %13, %15
  br i1 %or.cond14.i, label %.thread, label %18

.thread:                                          ; preds = %12
  %16 = lshr exact i64 %1, 20
  br label %_Z24exact_unit_for_byte_sizem.exit

_Z23byte_size_in_exact_unitm.exit:                ; preds = %8
  %17 = lshr exact i64 %1, 30
  br label %_Z24exact_unit_for_byte_sizem.exit

18:                                               ; preds = %12
  %19 = icmp ugt i64 %1, 1023
  %20 = and i64 %1, 1023
  %21 = icmp eq i64 %20, 0
  %or.cond16.i = and i1 %19, %21
  %22 = lshr exact i64 %1, 10
  %spec.select.i = select i1 %or.cond16.i, i64 %22, i64 %1
  %23 = icmp ugt i64 %1, 1023
  %24 = and i64 %1, 1023
  %25 = icmp eq i64 %24, 0
  %or.cond11.i = and i1 %23, %25
  %spec.select.i10 = select i1 %or.cond11.i, ptr @.str.271, ptr @.str.272
  br label %_Z24exact_unit_for_byte_sizem.exit

_Z24exact_unit_for_byte_sizem.exit:               ; preds = %.thread, %_Z23byte_size_in_exact_unitm.exit, %18
  %.0.i50 = phi i64 [ %17, %_Z23byte_size_in_exact_unitm.exit ], [ %spec.select.i, %18 ], [ %16, %.thread ]
  %.0.i11 = phi ptr [ @.str.269, %_Z23byte_size_in_exact_unitm.exit ], [ %spec.select.i10, %18 ], [ @.str.270, %.thread ]
  %26 = icmp ugt i64 %2, 1073741823
  %27 = and i64 %2, 1073741823
  %28 = icmp eq i64 %27, 0
  %or.cond.i12 = and i1 %26, %28
  br i1 %or.cond.i12, label %_Z23byte_size_in_exact_unitm.exit17, label %29

29:                                               ; preds = %_Z24exact_unit_for_byte_sizem.exit
  %30 = icmp ugt i64 %2, 1048575
  %31 = and i64 %2, 1048575
  %32 = icmp eq i64 %31, 0
  %or.cond14.i13 = and i1 %30, %32
  br i1 %or.cond14.i13, label %.thread61, label %35

.thread61:                                        ; preds = %29
  %33 = lshr exact i64 %2, 20
  br label %_Z24exact_unit_for_byte_sizem.exit23

_Z23byte_size_in_exact_unitm.exit17:              ; preds = %_Z24exact_unit_for_byte_sizem.exit
  %34 = lshr exact i64 %2, 30
  br label %_Z24exact_unit_for_byte_sizem.exit23

35:                                               ; preds = %29
  %36 = icmp ugt i64 %2, 1023
  %37 = and i64 %2, 1023
  %38 = icmp eq i64 %37, 0
  %or.cond16.i14 = and i1 %36, %38
  %39 = lshr exact i64 %2, 10
  %spec.select.i15 = select i1 %or.cond16.i14, i64 %39, i64 %2
  %40 = icmp ugt i64 %2, 1023
  %41 = and i64 %2, 1023
  %42 = icmp eq i64 %41, 0
  %or.cond11.i20 = and i1 %40, %42
  %spec.select.i21 = select i1 %or.cond11.i20, ptr @.str.271, ptr @.str.272
  br label %_Z24exact_unit_for_byte_sizem.exit23

_Z24exact_unit_for_byte_sizem.exit23:             ; preds = %.thread61, %_Z23byte_size_in_exact_unitm.exit17, %35
  %.0.i1653 = phi i64 [ %34, %_Z23byte_size_in_exact_unitm.exit17 ], [ %spec.select.i15, %35 ], [ %33, %.thread61 ]
  %.0.i22 = phi ptr [ @.str.269, %_Z23byte_size_in_exact_unitm.exit17 ], [ %spec.select.i21, %35 ], [ @.str.270, %.thread61 ]
  %43 = ptrtoint ptr %3 to i64
  %44 = icmp ugt i64 %4, 1073741823
  %45 = and i64 %4, 1073741823
  %46 = icmp eq i64 %45, 0
  %or.cond.i24 = and i1 %44, %46
  br i1 %or.cond.i24, label %_Z23byte_size_in_exact_unitm.exit29, label %47

47:                                               ; preds = %_Z24exact_unit_for_byte_sizem.exit23
  %48 = icmp ugt i64 %4, 1048575
  %49 = and i64 %4, 1048575
  %50 = icmp eq i64 %49, 0
  %or.cond14.i25 = and i1 %48, %50
  br i1 %or.cond14.i25, label %.thread63, label %53

.thread63:                                        ; preds = %47
  %51 = lshr exact i64 %4, 20
  br label %_Z24exact_unit_for_byte_sizem.exit35

_Z23byte_size_in_exact_unitm.exit29:              ; preds = %_Z24exact_unit_for_byte_sizem.exit23
  %52 = lshr exact i64 %4, 30
  br label %_Z24exact_unit_for_byte_sizem.exit35

53:                                               ; preds = %47
  %54 = icmp ugt i64 %4, 1023
  %55 = and i64 %4, 1023
  %56 = icmp eq i64 %55, 0
  %or.cond16.i26 = and i1 %54, %56
  %57 = lshr exact i64 %4, 10
  %spec.select.i27 = select i1 %or.cond16.i26, i64 %57, i64 %4
  %58 = icmp ugt i64 %4, 1023
  %59 = and i64 %4, 1023
  %60 = icmp eq i64 %59, 0
  %or.cond11.i32 = and i1 %58, %60
  %spec.select.i33 = select i1 %or.cond11.i32, ptr @.str.271, ptr @.str.272
  br label %_Z24exact_unit_for_byte_sizem.exit35

_Z24exact_unit_for_byte_sizem.exit35:             ; preds = %.thread63, %_Z23byte_size_in_exact_unitm.exit29, %53
  %.0.i2856 = phi i64 [ %52, %_Z23byte_size_in_exact_unitm.exit29 ], [ %spec.select.i27, %53 ], [ %51, %.thread63 ]
  %.0.i34 = phi ptr [ @.str.269, %_Z23byte_size_in_exact_unitm.exit29 ], [ %spec.select.i33, %53 ], [ @.str.270, %.thread63 ]
  %61 = icmp ugt i64 %5, 1073741823
  %62 = and i64 %5, 1073741823
  %63 = icmp eq i64 %62, 0
  %or.cond.i36 = and i1 %61, %63
  br i1 %or.cond.i36, label %_Z23byte_size_in_exact_unitm.exit41, label %64

64:                                               ; preds = %_Z24exact_unit_for_byte_sizem.exit35
  %65 = icmp ugt i64 %5, 1048575
  %66 = and i64 %5, 1048575
  %67 = icmp eq i64 %66, 0
  %or.cond14.i37 = and i1 %65, %67
  br i1 %or.cond14.i37, label %.thread65, label %70

.thread65:                                        ; preds = %64
  %68 = lshr exact i64 %5, 20
  br label %_Z24exact_unit_for_byte_sizem.exit47

_Z23byte_size_in_exact_unitm.exit41:              ; preds = %_Z24exact_unit_for_byte_sizem.exit35
  %69 = lshr exact i64 %5, 30
  br label %_Z24exact_unit_for_byte_sizem.exit47

70:                                               ; preds = %64
  %71 = icmp ugt i64 %5, 1023
  %72 = and i64 %5, 1023
  %73 = icmp eq i64 %72, 0
  %or.cond16.i38 = and i1 %71, %73
  %74 = lshr exact i64 %5, 10
  %spec.select.i39 = select i1 %or.cond16.i38, i64 %74, i64 %5
  %75 = icmp ugt i64 %5, 1023
  %76 = and i64 %5, 1023
  %77 = icmp eq i64 %76, 0
  %or.cond11.i44 = and i1 %75, %77
  %spec.select.i45 = select i1 %or.cond11.i44, ptr @.str.271, ptr @.str.272
  br label %_Z24exact_unit_for_byte_sizem.exit47

_Z24exact_unit_for_byte_sizem.exit47:             ; preds = %.thread65, %_Z23byte_size_in_exact_unitm.exit41, %70
  %.0.i4059 = phi i64 [ %69, %_Z23byte_size_in_exact_unitm.exit41 ], [ %spec.select.i39, %70 ], [ %68, %.thread65 ]
  %.0.i46 = phi ptr [ @.str.269, %_Z23byte_size_in_exact_unitm.exit41 ], [ %spec.select.i45, %70 ], [ @.str.270, %.thread65 ]
  tail call void (ptr, ...) @_ZN7LogImplILN6LogTag4typeE108ELS1_0ELS1_0ELS1_0ELS1_0ELS1_0EE5writeILN8LogLevel4typeE3EEEvPKcz(ptr noundef nonnull @.str.61, ptr noundef %0, i64 noundef %.0.i50, ptr noundef nonnull %.0.i11, i64 noundef %.0.i1653, ptr noundef nonnull %.0.i22, i64 noundef %43, i64 noundef %.0.i2856, ptr noundef nonnull %.0.i34, i64 noundef %.0.i4059, ptr noundef nonnull %.0.i46)
  br label %78

78:                                               ; preds = %6, %_Z24exact_unit_for_byte_sizem.exit47
  ret void
}